(dp1
<<<<<<< HEAD
S'rating'
=======
S'product'
>>>>>>> Jack
p2
(dp3
S'length'
p4
I512
sS'unique'
p5
I00
sS'sortable'
p6
<<<<<<< HEAD
I17
sS'sql'
p7
S'DOUBLE'
=======
I3
sS'sql'
p7
S'INTEGER REFERENCES product (id) ON DELETE CASCADE  '
>>>>>>> Jack
p8
sS'notnull'
p9
I00
sS'type'
p10
<<<<<<< HEAD
S'float'
p11
ssS'product'
=======
S'reference product'
p11
ssS'code'
>>>>>>> Jack
p12
(dp13
g4
I512
sg5
I00
sg6
<<<<<<< HEAD
I3
sg7
S'INTEGER REFERENCES product (id) ON DELETE CASCADE  '
p14
sg9
I00
sg10
S'reference product'
p15
ssS'code'
p16
(dp17
g4
I512
sg5
I00
sg6
I4
sg7
S'CHAR(512)'
p18
=======
I4
sg7
S'CHAR(512)'
p14
>>>>>>> Jack
sg9
I00
sg10
S'string'
<<<<<<< HEAD
p19
ssS'description'
p20
(dp21
=======
p15
ssS'description'
p16
(dp17
>>>>>>> Jack
g4
I512
sg5
I00
sg6
I6
sg7
S'CHAR(512)'
<<<<<<< HEAD
p22
sg9
I00
sg10
g19
ssS'tags'
p23
(dp24
=======
p18
sg9
I00
sg10
g15
ssS'tags'
p19
(dp20
>>>>>>> Jack
g4
I512
sg5
I00
sg6
I10
sg7
S'CHAR(512)'
<<<<<<< HEAD
p25
sg9
I00
sg10
g19
ssS'is_active'
p26
(dp27
=======
p21
sg9
I00
sg10
g15
ssS'is_active'
p22
(dp23
>>>>>>> Jack
g4
I512
sg5
I00
sg6
<<<<<<< HEAD
I19
sg7
S'CHAR(1)'
p28
=======
I18
sg7
S'CHAR(1)'
p24
>>>>>>> Jack
sg9
I00
sg10
S'boolean'
<<<<<<< HEAD
p29
ssS'image'
p30
(dp31
=======
p25
ssS'image'
p26
(dp27
>>>>>>> Jack
g4
I512
sg5
I00
sg6
I9
sg7
S'CHAR(512)'
<<<<<<< HEAD
p32
=======
p28
>>>>>>> Jack
sg9
I00
sg10
S'upload'
<<<<<<< HEAD
p33
ssS'tax'
p34
(dp35
=======
p29
ssS'tax'
p30
(dp31
>>>>>>> Jack
g4
I512
sg5
I00
sg6
I16
sg7
S'DOUBLE'
<<<<<<< HEAD
p36
=======
p32
>>>>>>> Jack
sg9
I00
sg10
S'decimal(10,2)'
<<<<<<< HEAD
p37
ssS'quantity_in_cart'
p38
(dp39
=======
p33
ssS'quantity_in_cart'
p34
(dp35
>>>>>>> Jack
g4
I512
sg5
I00
sg6
<<<<<<< HEAD
I24
sg7
S'INTEGER'
p40
=======
I23
sg7
S'INTEGER'
p36
>>>>>>> Jack
sg9
I00
sg10
S'integer'
<<<<<<< HEAD
p41
ssS'p_type'
p42
(dp43
S'sortable'
p44
I11
sS'sql'
p45
S'CHAR(512)'
p46
sS'length'
p47
I512
sS'notnull'
p48
I00
sS'unique'
p49
I00
sS'type'
p50
S'string'
p51
ssS'featured'
p52
(dp53
=======
p37
ssS'p_type'
p38
(dp39
S'sortable'
p40
I11
sS'sql'
p41
S'CHAR(512)'
p42
sS'length'
p43
I512
sS'notnull'
p44
I00
sS'unique'
p45
I00
sS'type'
p46
S'string'
p47
ssS'created_on'
p48
(dp49
>>>>>>> Jack
g4
I512
sg5
I00
sg6
<<<<<<< HEAD
I13
sg7
S'CHAR(1)'
p54
sg9
I00
sg10
g29
ssS'created_by'
p55
(dp56
=======
I19
sg7
S'TIMESTAMP'
p50
sg9
I00
sg10
S'datetime'
p51
ssS'unit_price'
p52
(dp53
>>>>>>> Jack
g4
I512
sg5
I00
sg6
<<<<<<< HEAD
I21
sg7
S'INTEGER REFERENCES auth_user (id) ON DELETE CASCADE  '
p57
sg9
I00
sg10
S'reference auth_user'
p58
ssS'keywords'
p59
(dp60
=======
I8
sg7
S'DOUBLE'
p54
sg9
I00
sg10
g33
ssS'keywords'
p55
(dp56
>>>>>>> Jack
g4
I512
sg5
I00
sg6
<<<<<<< HEAD
I18
sg7
S'CHAR(512)'
p61
sg9
I00
sg10
g19
ssS'id'
p62
(dp63
=======
I17
sg7
S'CHAR(512)'
p57
sg9
I00
sg10
g15
ssS'id'
p58
(dp59
>>>>>>> Jack
g4
I512
sg5
I00
sg6
I1
sg7
S'INTEGER PRIMARY KEY AUTOINCREMENT'
<<<<<<< HEAD
p64
=======
p60
>>>>>>> Jack
sg9
I00
sg10
S'id'
<<<<<<< HEAD
p65
ssS'category'
p66
(dp67
=======
p61
ssS'category'
p62
(dp63
>>>>>>> Jack
g4
I512
sg5
I00
sg6
I11
sg7
S'CHAR(512)'
<<<<<<< HEAD
p68
sg9
I00
sg10
g19
ssS'modified_by'
p69
(dp70
=======
p64
sg9
I00
sg10
g15
ssS'modified_by'
p65
(dp66
>>>>>>> Jack
g4
I512
sg5
I00
sg6
<<<<<<< HEAD
I23
sg7
S'INTEGER REFERENCES auth_user (id) ON DELETE CASCADE  '
p71
sg9
I00
sg10
g58
ssS'name'
p72
(dp73
=======
I22
sg7
S'INTEGER REFERENCES auth_user (id) ON DELETE CASCADE  '
p67
sg9
I00
sg10
S'reference auth_user'
p68
ssS'name'
p69
(dp70
>>>>>>> Jack
g4
I512
sg5
I00
sg6
I5
sg7
S'CHAR(512)'
<<<<<<< HEAD
p74
sg9
I00
sg10
g19
ssS'popularity'
p75
(dp76
=======
p71
sg9
I00
sg10
g15
ssS'popularity'
p72
(dp73
>>>>>>> Jack
g4
I512
sg5
I00
sg6
I12
sg7
S'INTEGER'
<<<<<<< HEAD
p77
sg9
I00
sg10
g41
ssS'on_sale'
p78
(dp79
=======
p74
sg9
I00
sg10
g37
ssS'on_sale'
p75
(dp76
>>>>>>> Jack
g4
I512
sg5
I00
sg6
I14
sg7
S'CHAR(1)'
<<<<<<< HEAD
p80
sg9
I00
sg10
g29
ssS'created_on'
p81
(dp82
=======
p77
sg9
I00
sg10
g25
ssS'featured'
p78
(dp79
>>>>>>> Jack
g4
I512
sg5
I00
sg6
<<<<<<< HEAD
I20
sg7
S'TIMESTAMP'
p83
sg9
I00
sg10
S'datetime'
p84
ssS'unit_price'
p85
(dp86
=======
I13
sg7
S'CHAR(1)'
p80
sg9
I00
sg10
g25
ssS'created_by'
p81
(dp82
>>>>>>> Jack
g4
I512
sg5
I00
sg6
<<<<<<< HEAD
I8
sg7
S'DOUBLE'
p87
sg9
I00
sg10
g37
ssS'purchase_order'
p88
(dp89
=======
I20
sg7
S'INTEGER REFERENCES auth_user (id) ON DELETE CASCADE  '
p83
sg9
I00
sg10
g68
ssS'purchase_order'
p84
(dp85
>>>>>>> Jack
g4
I512
sg5
I00
sg6
I2
sg7
S'INTEGER REFERENCES purchase_order (id) ON DELETE CASCADE  '
<<<<<<< HEAD
p90
=======
p86
>>>>>>> Jack
sg9
I00
sg10
S'reference purchase_order'
<<<<<<< HEAD
p91
ssS'modified_on'
p92
(dp93
=======
p87
ssS'modified_on'
p88
(dp89
>>>>>>> Jack
g4
I512
sg5
I00
sg6
<<<<<<< HEAD
I22
sg7
S'TIMESTAMP'
p94
sg9
I00
sg10
g84
ssS'v_id'
p95
(dp96
=======
I21
sg7
S'TIMESTAMP'
p90
sg9
I00
sg10
g51
ssS'v_id'
p91
(dp92
>>>>>>> Jack
g4
I512
sg5
I00
sg6
I15
sg7
S'INTEGER REFERENCES hospitals (id) ON DELETE CASCADE  '
<<<<<<< HEAD
p97
=======
p93
>>>>>>> Jack
sg9
I00
sg10
S'reference hospitals'
<<<<<<< HEAD
p98
ssS'qty_in_stock'
p99
(dp100
=======
p94
ssS'qty_in_stock'
p95
(dp96
>>>>>>> Jack
g4
I512
sg5
I00
sg6
I7
sg7
S'INTEGER'
<<<<<<< HEAD
p101
sg9
I00
sg10
g41
=======
p97
sg9
I00
sg10
g37
>>>>>>> Jack
ss.