(dp1
S'product'
p2
(dp3
S'length'
p4
I512
sS'unique'
p5
I00
sS'sortable'
p6
I3
sS'sql'
p7
S'INTEGER REFERENCES product (id) ON DELETE CASCADE  '
p8
sS'notnull'
p9
I00
sS'type'
p10
S'reference product'
p11
ssS'code'
p12
(dp13
g4
I512
sg5
I00
sg6
I4
sg7
S'CHAR(512)'
p14
sg9
I00
sg10
S'string'
p15
ssS'description'
p16
(dp17
g4
I512
sg5
I00
sg6
I6
sg7
S'CHAR(512)'
p18
sg9
I00
sg10
g15
ssS'tags'
p19
(dp20
g4
I512
sg5
I00
sg6
I10
sg7
S'CHAR(512)'
p21
sg9
I00
sg10
g15
ssS'is_active'
p22
(dp23
g4
I512
sg5
I00
sg6
I18
sg7
S'CHAR(1)'
p24
sg9
I00
sg10
S'boolean'
p25
ssS'image'
p26
(dp27
g4
I512
sg5
I00
sg6
I9
sg7
S'CHAR(512)'
p28
sg9
I00
sg10
S'upload'
p29
ssS'tax'
p30
(dp31
g4
I512
sg5
I00
sg6
I16
sg7
S'DOUBLE'
p32
sg9
I00
sg10
S'decimal(10,2)'
p33
ssS'quantity_in_cart'
p34
(dp35
g4
I512
sg5
I00
sg6
I23
sg7
S'INTEGER'
p36
sg9
I00
sg10
S'integer'
p37
ssS'p_type'
p38
(dp39
S'sortable'
p40
I11
sS'sql'
p41
S'CHAR(512)'
p42
sS'length'
p43
I512
sS'notnull'
p44
I00
sS'unique'
p45
I00
sS'type'
p46
S'string'
p47
<<<<<<< HEAD
ssS'featured'
=======
ssS'created_on'
>>>>>>> Jack
p48
(dp49
g4
I512
sg5
I00
sg6
<<<<<<< HEAD
I13
sg7
S'CHAR(1)'
=======
I19
sg7
S'TIMESTAMP'
>>>>>>> Jack
p50
sg9
I00
sg10
<<<<<<< HEAD
g25
ssS'created_by'
p51
(dp52
=======
S'datetime'
p51
ssS'unit_price'
p52
(dp53
>>>>>>> Jack
g4
I512
sg5
I00
sg6
<<<<<<< HEAD
I20
sg7
S'INTEGER REFERENCES auth_user (id) ON DELETE CASCADE  '
p53
sg9
I00
sg10
S'reference auth_user'
p54
=======
I8
sg7
S'DOUBLE'
p54
sg9
I00
sg10
g33
>>>>>>> Jack
ssS'keywords'
p55
(dp56
g4
I512
sg5
I00
sg6
I17
sg7
S'CHAR(512)'
p57
sg9
I00
sg10
g15
ssS'id'
p58
(dp59
g4
I512
sg5
I00
sg6
I1
sg7
S'INTEGER PRIMARY KEY AUTOINCREMENT'
p60
sg9
I00
sg10
S'id'
p61
ssS'category'
p62
(dp63
g4
I512
sg5
I00
sg6
I11
sg7
S'CHAR(512)'
p64
sg9
I00
sg10
g15
ssS'modified_by'
p65
(dp66
g4
I512
sg5
I00
sg6
I22
sg7
S'INTEGER REFERENCES auth_user (id) ON DELETE CASCADE  '
p67
sg9
I00
sg10
<<<<<<< HEAD
g54
ssS'name'
p68
(dp69
=======
S'reference auth_user'
p68
ssS'name'
p69
(dp70
>>>>>>> Jack
g4
I512
sg5
I00
sg6
I5
sg7
S'CHAR(512)'
<<<<<<< HEAD
p70
=======
p71
>>>>>>> Jack
sg9
I00
sg10
g15
ssS'popularity'
<<<<<<< HEAD
p71
(dp72
=======
p72
(dp73
>>>>>>> Jack
g4
I512
sg5
I00
sg6
I12
sg7
S'INTEGER'
<<<<<<< HEAD
p73
=======
p74
>>>>>>> Jack
sg9
I00
sg10
g37
ssS'on_sale'
<<<<<<< HEAD
p74
(dp75
=======
p75
(dp76
>>>>>>> Jack
g4
I512
sg5
I00
sg6
I14
sg7
S'CHAR(1)'
<<<<<<< HEAD
p76
=======
p77
>>>>>>> Jack
sg9
I00
sg10
g25
<<<<<<< HEAD
ssS'created_on'
p77
(dp78
=======
ssS'featured'
p78
(dp79
>>>>>>> Jack
g4
I512
sg5
I00
sg6
<<<<<<< HEAD
I19
sg7
S'TIMESTAMP'
p79
sg9
I00
sg10
S'datetime'
p80
ssS'unit_price'
=======
I13
sg7
S'CHAR(1)'
p80
sg9
I00
sg10
g25
ssS'created_by'
>>>>>>> Jack
p81
(dp82
g4
I512
sg5
I00
sg6
<<<<<<< HEAD
I8
sg7
S'DOUBLE'
=======
I20
sg7
S'INTEGER REFERENCES auth_user (id) ON DELETE CASCADE  '
>>>>>>> Jack
p83
sg9
I00
sg10
<<<<<<< HEAD
g33
=======
g68
>>>>>>> Jack
ssS'purchase_order'
p84
(dp85
g4
I512
sg5
I00
sg6
I2
sg7
S'INTEGER REFERENCES purchase_order (id) ON DELETE CASCADE  '
p86
sg9
I00
sg10
S'reference purchase_order'
p87
ssS'modified_on'
p88
(dp89
g4
I512
sg5
I00
sg6
I21
sg7
S'TIMESTAMP'
p90
sg9
I00
sg10
<<<<<<< HEAD
g80
=======
g51
>>>>>>> Jack
ssS'v_id'
p91
(dp92
g4
I512
sg5
I00
sg6
I15
sg7
S'INTEGER REFERENCES hospitals (id) ON DELETE CASCADE  '
p93
sg9
I00
sg10
S'reference hospitals'
p94
ssS'qty_in_stock'
p95
(dp96
g4
I512
sg5
I00
sg6
I7
sg7
S'INTEGER'
p97
sg9
I00
sg10
g37
ss.