(dp1
S'h_size'
p2
(dp3
S'length'
p4
I512
sS'unique'
p5
I00
sS'sortable'
p6
I4
sS'sql'
p7
S'CHAR(512)'
p8
sS'notnull'
p9
I00
sS'type'
p10
S'string'
p11
ssS'for_profit'
p12
(dp13
g4
I512
sg5
I00
sg6
I6
sg7
S'CHAR(1)'
p14
sg9
I00
sg10
S'boolean'
p15
ssS'email_format'
p16
(dp17
g4
I512
sg5
I00
sg6
I3
sg7
S'CHAR(512)'
p18
sg9
I00
sg10
g11
ssS'esn_id'
p19
(dp20
g4
I512
sg5
I01
sg6
I5
sg7
S'CHAR(512) UNIQUE'
p21
sg9
I00
sg10
g11
<<<<<<< HEAD
ssS'h_name'
p22
(dp23
=======
ssS'contact_email'
p21
(dp22
>>>>>>> 4b99a643d463f84aec8df441bb5369a0b5d46c34
g4
I512
sg5
I00
sg6
<<<<<<< HEAD
I2
sg7
S'CHAR(512)'
p24
=======
I7
sg7
S'CHAR(512)'
p23
>>>>>>> 4b99a643d463f84aec8df441bb5369a0b5d46c34
sg9
I00
sg10
g11
<<<<<<< HEAD
ssS'contact_email'
p25
(dp26
=======
ssS'for_profit'
p24
(dp25
>>>>>>> 4b99a643d463f84aec8df441bb5369a0b5d46c34
g4
I512
sg5
I00
sg6
I6
sg7
S'CHAR(1)'
p26
sg9
I00
sg10
S'boolean'
p27
ssS'h_id'
p28
(dp29
S'sortable'
p30
L2L
sS'sql'
p31
S'CHAR(512) UNIQUE'
p32
sS'length'
p33
L512L
sS'notnull'
p34
L0L
sS'unique'
p35
L1L
sS'type'
p36
S'string'
p37
ssS'id'
p38
(dp39
g4
I512
sg5
I00
sg6
I1
sg7
S'INTEGER PRIMARY KEY AUTOINCREMENT'
p40
sg9
I00
sg10
S'id'
p41
ss.