(dp1
S'output'
p2
S'missing "pass" in view'
p3
sS'layer'
p4
S'ParserContainer'
p5
sS'code'
p6
S'response.write(\'<!DOCTYPE html>\\n<!--[if (gt IE 9)|!(IE)]><!--> <html class="no-js" lang="\', escape=False)\nresponse.write(T.accepted_language or \'en\')\nresponse.write(\'"> <!--<![endif]-->\\n  <head>\\n    <meta charset="utf-8">\\n    <!-- www.phpied.com/conditional-comments-block-downloads/ -->\\n    <!-- Always force latest IE rendering engine\\n         (even in intranet) & Chrome Frame\\n         Remove this if you use the .htaccess -->\\n    <meta http-equiv="X-UA-Compatible" content="IE=edge\', escape=False)\nresponse.write(not request.is_local and \',chrome=1\' or \'\')\nresponse.write(\'">\\n    <!--  Mobile Viewport Fix\\n          j.mp/mobileviewport & davidbcalhoun.com/2010/viewport-metatag\\n          device-width: Occupy full width of the screen in its current orientation\\n          initial-scale = 1.0 retains dimensions instead of zooming out if page height > device height\\n          user-scalable = yes allows the user to zoom in -->\\n    <meta name="viewport" content="width=device-width, initial-scale=1.0">\\n    <title>\', escape=False)\nresponse.write(response.title or request.application)\nresponse.write(\'</title>\\n    <!-- http://dev.w3.org/html5/markup/meta.name.html -->\\n    <meta name="application-name" content="\', escape=False)\nresponse.write(request.application)\nresponse.write(\'">\\n    <!-- Speaking of Google, don\\\'t forget to set your site up:\\n         http://google.com/webmasters -->\\n    <meta name="google-site-verification" content="">\\n    <!-- include stylesheets -->\\n    <link rel="stylesheet" href="\', escape=False)\nresponse.write(URL(\'static\',\'css/bootstrap.min.css\'))\nresponse.write(\'"/>\\n    <link rel="stylesheet" href="\', escape=False)\nresponse.write(URL(\'static\',\'css/bootstrap-theme.min.css\'))\nresponse.write(\'"/>\\n    <link rel="stylesheet" href="\', escape=False)\nresponse.write(URL(\'static\',\'css/web2py-bootstrap3.css\'))\nresponse.write(\'"/>\\n    <link rel="stylesheet" href="\', escape=False)\nresponse.write(URL(\'static\',\'css/custom.css\'))\nresponse.write(\'"/>\\n    <link rel="shortcut icon" href="\', escape=False)\nresponse.write(URL(\'static\',\'images/favicon.ico\'))\nresponse.write(\'" type="image/x-icon">\\n    <link rel="apple-touch-icon" href="\', escape=False)\nresponse.write(URL(\'static\',\'images/favicon.png\'))\nresponse.write(\'">\\n    <!-- All JavaScript at the bottom, except for Modernizr which enables\\n         HTML5 elements & feature detects -->\\n    <script src="\', escape=False)\nresponse.write(URL(\'static\',\'js/modernizr-2.8.3.min.js\'))\nresponse.write(\'"></script>\\n    <!--[if lt IE 9]>\\n        <script src="\', escape=False)\nresponse.write(URL(\'static\',\'js/respond-1.4.2.min.js\'))\nresponse.write(\'"></script>\\n        <![endif]-->\\n    <!-- Favicons -->\\n    \', escape=False)\nresponse.write(\'<script type="text/javascript"><!--\\n    // These variables are used by the web2py_ajax_init function in web2py_ajax.js (which is loaded below).\\n    var w2p_ajax_confirm_message = "\', escape=False)\nresponse.write(T(\'Are you sure you want to delete this object?\'))\nresponse.write(\'";\\n    var w2p_ajax_disable_with_message = "\', escape=False)\nresponse.write(T(\'Working...\'))\nresponse.write(\'";\\n    var w2p_ajax_date_format = "\', escape=False)\nresponse.write(T(\'%Y-%m-%d\'))\nresponse.write(\'";\\n    var w2p_ajax_datetime_format = "\', escape=False)\nresponse.write(T(\'%Y-%m-%d %H:%M:%S\'))\nresponse.write(\'";\\n    var ajax_error_500 = \\\'\', escape=False)\nresponse.write(T.M(\'An error occured, please [[reload %s]] the page\') % URL(args=request.args, vars=request.get_vars))\nresponse.write("\'\\n    //--></script>\\n", escape=False)\nresponse.files.insert(0,URL(\'static\',\'js/jquery.js\'))\nresponse.files.insert(1,URL(\'static\',\'css/calendar.css\'))\nresponse.files.insert(2,URL(\'static\',\'js/calendar.js\'))\nresponse.files.insert(3,URL(\'static\',\'js/web2py.js\'))\nresponse.include_meta()\nresponse.include_files()\nresponse.write(\'\\n\', escape=False)\nresponse.write(\' <!-- this includes jquery.js, calendar.js/.css and web2py.js -->\\n    \', escape=False)\nresponse.write(\'\\n    \', escape=False)\n# using sidebars need to know what sidebar you want to use\nmc0 = \'col-md-12\'\nmc1 = \'col-md-9\'\nmc2 = \'col-md-6\'\nleft_sidebar_enabled = globals().get(\'left_sidebar_enabled\', False)\nright_sidebar_enabled = globals().get(\'right_sidebar_enabled\', False)\nmiddle_column = {0: mc0, 1: mc1, 2: mc2}[\n(left_sidebar_enabled and 1 or 0)+(right_sidebar_enabled and 1 or 0)]\nresponse.write(\'\\n  </head>\\n  <body>\\n    <!--[if lt IE 8]><p class="browserupgrade">You are using an <strong>outdated</strong> browser. Please <a href="http://browsehappy.com/">upgrade your browser</a> to improve your experience.</p><![endif]-->\\n    <div class="flash alert alert-dismissable">\', escape=False)\nresponse.write(response.flash or \'\')\nresponse.write(\'</div>\\n    <!-- Navbar ======================================= -->\\n    <nav class="navbar navbar-inverse navbar-fixed-top" role="navigation">\\n      <div class="container-fluid">\\n        <div class="navbar-header">\\n          <button type="button" class="navbar-toggle" data-toggle="collapse" data-target=".navbar-collapse">\\n            <span class="sr-only">Toggle navigation</span>\\n            <span class="icon-bar"></span>\\n            <span class="icon-bar"></span>\\n            <span class="icon-bar"></span>\\n          </button>\\n          \', escape=False)\nresponse.write(response.logo or \'\')\nresponse.write(\'\\n        </div>\\n        <div class="collapse navbar-collapse navbar-ex1-collapse">\\n          <ul class="nav navbar-nav navbar-right">\\n            \', escape=False)\nresponse.write(\'auth\' in globals() and auth.navbar(\'Welcome\',mode=\'dropdown\') or \'\')\nresponse.write(\'\\n          </ul>\\n          \', escape=False)\nif response.menu:\n    response.write(\'\\n          \', escape=False)\n    response.write(MENU(response.menu, _class=\'nav navbar-nav\',li_class=\'dropdown\',ul_class=\'dropdown-menu\'))\n    response.write(\'\\n          \', escape=False)\n    pass\nresponse.write(\'\\n        </div>\\n      </div>\\n    </nav>\\n    <!-- Masthead ===================================== -->    \\n    \', escape=False)\nresponse.write(\'\\n    \', escape=False)\nresponse.write(\'\\n    <!-- Main ========================================= -->\\n    <!-- Begin page content -->\\n    <div class="container-fluid main-container">\\n      \', escape=False)\nif left_sidebar_enabled:\n    response.write(\'\\n        <div class="col-md-3 left-sidebar">\\n            \', escape=False)\n    response.write(\'\\n            <h3>Left Sidebar</h3>\\n            <p></p>\\n            \', escape=False)\n    response.write(\'\\n        </div>\\n      \', escape=False)\n    pass\nresponse.write(\'\\n\\n      <div class="\', escape=False)\nresponse.write(middle_column)\nresponse.write(\'">\\n        \', escape=False)\nresponse.write(\'\\n        \', escape=False)\nresponse.write(\'\\n\\n<div id="products"></div>\\n\\n<script id="template" type="text/ractive">\\n\\n  <div class="shopping-cart">\\n    <h4>Shopping Cart</h4>\\n    <table class="table">\\n      {% #cart %}\\n      <tr>\\n        <td>{% name %}</td>\\n        <td>{% unit_price %}</td>\\n        <td>x <input value="{% quantity_in_cart %}"/> =</td>\\n        <td>${% unit_price*quantity_in_cart %}</td>\\n      </tr>\\n      {% /cart %}\\n      <tr>\\n        <td>TOTAL</td>\\n        <td></td>\\n        <td></td>\\n        <td>${% total(cart) %}</td>\\n      </tr>\\n    </table>\\n    {% #if cart.length>0 %}\\n    <a class="btn btn-primary" on-click="submit-order" href="\', escape=False)\nresponse.write(URL(\'order_info\'))\nresponse.write(\'">Submit Order</a>\\n    {% /if %}\\n  </div>\\n\\n  <button class="btn btn-primary pull-right" onclick="jQuery(\\\'.shopping-cart\\\').slideToggle()">Shopping Cart, ${% total(cart) %}</button>\\n\\n  <center style="padding:50px">\\n    <form class="form-inline">\\n      <div class="form-group">\\n        <div class="input-group">\\n          <div class="input-group-addon">Find Me</div>\\n          <input type="text" class="form-control" name="keywords" style="width:300px"\\n                 placeholder="">\\n        </div>\\n        <div class="input-group">\\n          <div class="input-group-addon">Max Price</div>\\n          <input type="text" class="form-control" name="price" style="width:100px"\\n               placeholder="400.00">\\n        </div>\\n      </div>\\n    <button type="submit" class="btn btn-primary" on-click="search">Search</button>\\n    </form>\\n  </center>\\n  {% #if products.length==0 %}\\n  <center>\\n    <img src="\', escape=False)\nresponse.write(URL(\'static\',\'images/cart.png\'))\nresponse.write(\'" style="width:400px"/>\\n  </center>\\n  {% /if %}\\n  {% #if products.length>0 %}\\n  <table class="table">    \\n    <thead>\\n      <tr>\\n        <th>Image</th>\\n        <th>Name</th>\\n        <th>In Stock</th>\\n        <th>Unit Price</th>\\n        <th></th>\\n      </tr>\\n    </thead>\\n    <tbody>\\n      {% #products: num %}\\n      <tr class="product" data-product="{% id %}">\\n        <td><img src="http://lorempixel.com/200/{% 150+num %}" data-url="\', escape=False)\nresponse.write(URL(\'download\'))\nresponse.write(\'/{% image %}" class="thumbnail"/></td>\\n        <td><a href="\', escape=False)\nresponse.write(URL(\'default\',\'product\', vars = dict(value = 0)))\nresponse.write(\'">{% name %}</a></td>\\n        <td>{% qty_in_stock %}</td>\\n        <td>${% unit_price %}</td>\\n\\t\\t<td> \', escape=False)\nfor r in rows:\n    response.write(\'</td>\\n\\t\\t<td> \', escape=False)\n    for v in r.image():\n        response.write(\'</td>\\n\\t\\t<td> \', escape=False)\n        response.write(v)\n        response.write(\'</td>\\n\\t\\t<td>\\n          <img on-click="buy:{% id %}" src="\', escape=False)\n        response.write(URL(\'static\',\'images/to-cart.png\'))\n        response.write(\'" class="to-cart">\\n        </td>\\n      </tr>\\n      {% /if %}\\n      {% /products %}\\n    </tbody>\\n  </table>\\n  {% /if %}\\n\\n  <!-- Modal -->\\n  <div id="mymodal" class="modal fade" role="dialog">\\n    <div class="modal-dialog">\\n      \\n      <!-- Modal content-->\\n      <div class="modal-content">\\n        <div class="modal-header">\\n          <button type="button" class="close" data-dismiss="modal">&times;</button>\\n          <h4 class="modal-title">Shopping Cart</h4>\\n        </div>\\n        <div class="modal-body">\\n        </div>\\n        <div class="modal-footer">\\n          <button type="button" class="btn btn-default" data-dismiss="modal">Close</button>\\n      </div>\\n      </div>\\n      \\n    </div>\\n  </div>\\n  \\n</script>\\n\\n<script>\\n  var search_products_url = \\\'\', escape=False)\n        response.write(URL(\'search\'))\n        response.write("\';\\n  var submit_order_url = \'", escape=False)\n        response.write(URL(\'submit_order\'))\n        response.write("\';\\n  jQuery(function(){\\n    var loading = true;\\n    MAIN = new Ractive({\\n      el: \'#products\',\\n      template: \'#template\',\\n      delimiters: [\'{%\',\'%}\'],\\n      tripleDelimiters: [ \'{%%\', \'%%}\' ],     \\n      data: { products: [], selectedProduct: 0, cart: [], products_by_id: {}, \\n              total: function(cart) {\\n                var total = 0.0;\\n                cart.map(function(p){total+=p.quantity_in_cart*p.unit_price;});\\n                if(!loading) window.localStorage.setItem(\'cart\', JSON.stringify(cart));\\n                return total; }\\n      }\\n    });\\n    var cart = window.localStorage.getItem(\'cart\');\\n    if(cart) MAIN.set(\'cart\',eval(\'(\'+cart+\')\'));\\n    loading = false;\\n    MAIN.on(\'select\',function(event,id) {\\n      MAIN.set(\'selectedProduct\',id);\\n    });\\n    MAIN.on(\'buy\',function(event,id) {\\n      id = parseInt(id);\\n      var product = MAIN.data.products_by_id[id];  \\n      var found=false;\\n      for(var k=0; k<MAIN.data.cart.length; k++)\\n         if(MAIN.data.cart[k].id==id) {found=true; MAIN.data.cart[k].quantity_in_cart++;}\\n      if(!found) {product.quantity_in_cart=1; MAIN.data.cart.push(product); }\\n      MAIN.set(\'cart\',MAIN.data.cart);\\n      jQuery.web2py.flash(\'Added to Cart\');\\n    });\\n    MAIN.on(\'search\',function(event){\\n      event.original.preventDefault();\\n      var form = jQuery(\'form\');\\n      MAIN.set(\'selectedProduct\',0);\\n      jQuery(\'.product\').show();  \\n      jQuery.getJSON(search_products_url,form.serialize()).done(function(data){\\n          var product_by_id = {};\\n          jQuery.web2py.enableElement(form.find(\'.disabled\'));\\n          MAIN.set(\'products\',data);\\n          MAIN.set(\'products_by_id\',product_by_id);\\n          for(var k=0; k<data.length; k++) MAIN.data.products_by_id[data[k].id]=data[k];\\n      });\\n    });\\n    MAIN.on(\'submit-order\',function(event){\\n      event.original.preventDefault();\\n      jQuery.post(submit_order_url,{cart:JSON.stringify(MAIN.data.cart)}).done(function(){\\n         window.location = jQuery(event.node).attr(\'href\');\\n         MAIN.set(\'cart\',[]);\\n      });\\n    });\\n  });\\n</script>", escape=False)\n        response.write(\'\\n        \', escape=False)\n        response.write(\'\\n      </div>\\n\\n      \', escape=False)\n        if right_sidebar_enabled:\n            response.write(\'\\n        <div class="col-md-3">\\n            \', escape=False)\n            response.write(\'\\n            <h3>Right Sidebar</h3>\\n            <p></p>\\n            \', escape=False)\n            response.write(\'\\n        </div>\\n      \', escape=False)\n            pass\n        response.write(\'\\n\\n    </div>\\n\\n    \', escape=False)\n        response.write(\'\\n\\n\\n    <!-- The javascript =============================== -->\\n    <script src="\', escape=False)\n        response.write(URL(\'static\',\'js/bootstrap.min.js\'))\n        response.write(\'"></script>\\n    <script src="\', escape=False)\n        response.write(URL(\'static\',\'js/ractive.min.js\'))\n        response.write(\'"></script>\\n    <script src="\', escape=False)\n        response.write(URL(\'static\',\'js/sugar.min.js\'))\n        response.write(\'"></script>\\n    <script src="\', escape=False)\n        response.write(URL(\'static\',\'js/web2py-bootstrap3.js\'))\n        response.write(\'"></script>\\n    \', escape=False)\n        response.write(\'\\n    \', escape=False)\n        if response.google_analytics_id:\n            response.write(\'\\n    <!-- Analytics ==================================== -->\\n    <script src="\', escape=False)\n            response.write(URL(\'static\',\'js/analytics.min.js\'))\n            response.write(\'"></script>\\n    <script type="text/javascript">\\n      analytics.initialize({\\n      \\\'Google Analytics\\\':{trackingId:\\\'\', escape=False)\n            response.write(response.google_analytics_id)\n            response.write("\'}\\n      });\\n    </script>\\n    ", escape=False)\n            pass\n        response.write(\'\\n    <!-- Share ============================y============ -->\\n    <script src="\', escape=False)\n        response.write(URL(\'static\',\'js/share.js\',vars=dict(static=URL(\'static\',\'images\'))))\n        response.write(\'"></script>\\n  </body>\\n</html>\\n\', escape=False)'
p7
sS'snapshot'
p8
(dp9
S'exception'
p10
(dp11
S'__module__'
p12
S"'gluon.rocket'"
p13
sS'__getslice__'
p14
S"<method-wrapper '__getslice__' of SocketTimeout object>"
p15
sS'__str__'
p16
S"<method-wrapper '__str__' of SocketTimeout object>"
p17
sS'__reduce__'
p18
S'<built-in method __reduce__ of SocketTimeout object>'
p19
sS'__dict__'
p20
S'{}'
p21
sS'__sizeof__'
p22
S'<built-in method __sizeof__ of SocketTimeout object>'
p23
sS'__weakref__'
p24
S'None'
p25
sS'__init__'
p26
S"<method-wrapper '__init__' of SocketTimeout object>"
p27
sS'__setattr__'
p28
S"<method-wrapper '__setattr__' of SocketTimeout object>"
p29
sS'__reduce_ex__'
p30
S'<built-in method __reduce_ex__ of SocketTimeout object>'
p31
sS'__new__'
p32
S'<built-in method __new__ of type object>'
p33
sS'__format__'
p34
S'<built-in method __format__ of SocketTimeout object>'
p35
sS'__class__'
p36
S"<class 'gluon.rocket.SocketTimeout'>"
p37
sS'__doc__'
p38
S"'Exception for when a socket times out between requests.'"
p39
sS'__getitem__'
p40
S"<method-wrapper '__getitem__' of SocketTimeout object>"
p41
sS'__setstate__'
p42
S'<built-in method __setstate__ of SocketTimeout object>'
p43
sS'__getattribute__'
p44
S"<method-wrapper '__getattribute__' of SocketTimeout object>"
p45
sS'args'
p46
S"('Socket timed out before request.',)"
p47
sS'__subclasshook__'
p48
S'<built-in method __subclasshook__ of type object>'
p49
sS'__unicode__'
p50
S'<built-in method __unicode__ of SocketTimeout object>'
p51
sS'__delattr__'
p52
S"<method-wrapper '__delattr__' of SocketTimeout object>"
p53
sS'__repr__'
p54
S"<method-wrapper '__repr__' of SocketTimeout object>"
p55
sS'__hash__'
p56
S"<method-wrapper '__hash__' of SocketTimeout object>"
p57
ssS'evalue'
p58
S'Socket timed out before request.'
p59
sS'frames'
p60
(lp61
(dp62
S'file'
p63
S'D:\\Downloads\\web2py_win\\web2py\\gluon\\rocket.py'
p64
sS'dump'
p65
(dp66
S'self'
p67
S'<WSGIWorker(Thread-36, started daemon 6704)>'
p68
sS'conn'
p69
S'<gluon.rocket.Connection object>'
p70
sS'self.run_app'
p71
S'<bound method WSGIWorker.run_app of <WSGIWorker(Thread-36, started daemon 6704)>>'
p72
ssS'lnum'
p73
I1337
sS'lines'
p74
(dp75
I1332
S'            # Enter connection serve loop'
p76
sI1333
S'            while True:'
p77
sI1334
S'                if __debug__:'
p78
sI1335
S"                    self.err_log.debug('Serving a request')"
p79
sI1336
S'                try:'
p80
sI1337
S'                    self.run_app(conn)'
p81
sI1338
S'                except:'
p82
sI1339
S'                    exc = sys.exc_info()'
p83
sI1340
S'                    handled = self._handleError(*exc)'
p84
sI1341
S'                    if handled:'
p85
ssS'call'
p86
S'(self=<WSGIWorker(Thread-36, started daemon 6704)>)'
p87
sS'func'
p88
S'run'
p89
sa(dp90
g63
S'D:\\Downloads\\web2py_win\\web2py\\gluon\\rocket.py'
p91
sg65
(dp92
S'self'
p93
S'<WSGIWorker(Thread-36, started daemon 6704)>'
p94
sS'self.environ'
p95
S"{'HTTP_ACCEPT': 'text/html,application/xhtml+xml,application/xml;q=0.9,*/*;q=0.8', 'HTTP_ACCEPT_ENCODING': 'gzip, deflate', 'HTTP_ACCEPT_LANGUAGE': 'en-US,en;q=0.5', 'HTTP_CACHE_CONTROL': 'max-age=0', 'HTTP_CONNECTION': 'keep-alive', 'HTTP_COOKIE': 'session_id_welcome=127.0.0.1-5acbee26-b9ce-478d-...er=127.0.0.1-1fb9f06f-58c9-4c04-83d0-0de8ea12945d', 'HTTP_HOST': '127.0.0.1:8000', 'HTTP_REFERER': 'http://127.0.0.1:8000/estore3Master/appadmin/select/db?query=db.product.id%3E0', 'HTTP_USER_AGENT': 'Mozilla/5.0 (Windows NT 10.0; WOW64; rv:46.0) Gecko/20100101 Firefox/46.0', 'PATH_INFO': '/estore3Master/default/index', ...}"
p96
sS'sock_file'
p97
S'<socket._fileobject object>'
p98
sS'environ'
p99
S'undefined'
p100
sS'self.build_environ'
p101
S'<bound method WSGIWorker.build_environ of <WSGIWorker(Thread-36, started daemon 6704)>>'
p102
sS'conn'
p103
S'<gluon.rocket.Connection object>'
p104
ssg73
I1830
sg74
(dp105
I1825
S'        else:'
p106
sI1826
S'            sock_file = conn.makefile(BUF_SIZE)'
p107
sI1827
S''
sI1828
S'        try:'
p108
sI1829
S'            # Read the headers and build our WSGI environment'
p109
sI1830
S'            self.environ = environ = self.build_environ(sock_file, conn)'
p110
sI1831
S''
sI1832
S'            # Handle 100 Continue'
p111
sI1833
S"            if environ.get('HTTP_EXPECT', '') == '100-continue':"
p112
sI1834
S"                res = environ['SERVER_PROTOCOL'] + ' 100 Continue\\r\\n\\r\\n'"
p113
ssg86
S'(self=<WSGIWorker(Thread-36, started daemon 6704)>, conn=<gluon.rocket.Connection object>)'
p114
sg88
S'run_app'
p115
sa(dp116
g63
S'D:\\Downloads\\web2py_win\\web2py\\gluon\\rocket.py'
p117
sg65
(dp118
S'sock_file'
p119
S'<socket._fileobject object>'
p120
sS'self.read_request_line'
p121
S'<bound method WSGIWorker.read_request_line of <WSGIWorker(Thread-36, started daemon 6704)>>'
p122
sS'self'
p123
S'<WSGIWorker(Thread-36, started daemon 6704)>'
p124
sS'request'
p125
g100
ssg73
I1650
sg74
(dp126
I1645
S'                                      "wsgiorg.futures": executor.futures})'
p127
sI1646
S''
sI1647
S'    def build_environ(self, sock_file, conn):'
p128
sI1648
S'        """ Build the execution environment. """'
p129
sI1649
S'        # Grab the request line'
p130
sI1650
S'        request = self.read_request_line(sock_file)'
p131
sI1651
S''
sI1652
S'        # Copy the Base Environment'
p132
sI1653
S'        environ = self.base_environ.copy()'
p133
sI1654
S''
ssg86
S'(self=<WSGIWorker(Thread-36, started daemon 6704)>, sock_file=<socket._fileobject object>, conn=<gluon.rocket.Connection object>)'
p134
sg88
S'build_environ'
p135
sa(dp136
g63
S'D:\\Downloads\\web2py_win\\web2py\\gluon\\rocket.py'
p137
sg65
(dp138
S'global SocketTimeout'
p139
S"<class 'gluon.rocket.SocketTimeout'>"
p140
ssg73
I1401
sg74
(dp141
I1396
S''
sI1397
S'                d = sock_file.readline()'
p142
sI1398
S'                if PY3K:'
p143
sI1399
S"                    d = d.decode('ISO-8859-1')"
p144
sI1400
S'        except socket.timeout:'
p145
sI1401
S"            raise SocketTimeout('Socket timed out before request.')"
p146
sI1402
S'        except TypeError:'
p147
sI1403
S'            raise SocketClosed('
p148
sI1404
S"                'SSL bug caused closure of socket.  See '"
p149
sI1405
S'                \'"https://groups.google.com/d/topic/web2py/P_Gw0JxWzCs".\')'
p150
ssg86
S'(self=<WSGIWorker(Thread-36, started daemon 6704)>, sock_file=<socket._fileobject object>)'
p151
sg88
S'read_request_line'
p152
sasS'pyver'
p153
S'Python 2.7.9: D:\\Downloads\\web2py_win\\web2py\\web2py.exe (prefix: C:\\Python27)'
p154
sS'etype'
p155
S"<class 'gluon.rocket.SocketTimeout'>"
p156
sS'date'
p157
S'Thu May 19 15:11:15 2016'
p158
sS'locals'
p159
(dp160
S'sock_file'
p161
S'<socket._fileobject object>'
p162
sS'self'
p163
S'<WSGIWorker(Thread-36, started daemon 6704)>'
p164
sssS'traceback'
p165
S'Traceback (most recent call last):\n  File "D:\\Downloads\\web2py_win\\web2py\\gluon\\rocket.py", line 1337, in run\n    self.run_app(conn)\n  File "D:\\Downloads\\web2py_win\\web2py\\gluon\\rocket.py", line 1830, in run_app\n    self.environ = environ = self.build_environ(sock_file, conn)\n  File "D:\\Downloads\\web2py_win\\web2py\\gluon\\rocket.py", line 1650, in build_environ\n    request = self.read_request_line(sock_file)\n  File "D:\\Downloads\\web2py_win\\web2py\\gluon\\rocket.py", line 1401, in read_request_line\n    raise SocketTimeout(\'Socket timed out before request.\')\nSocketTimeout: Socket timed out before request.\n'
p166
s.